target datalayout = "e-m:e-p270:32:32-p271:32:32-p272:64:64-i64:64-i128:128-f80:128-n8:16:32:64-S128"
target triple = "x86_64-pc-linux-gnu"

%struct.vfd = type { i32, i16, ptr, i32, i32, i32, i64, ptr, i32, i32 }

@VfdCache = internal global ptr null, align 8
@temporary_files_size = internal global i64 0, align 8
@my_wait_event_info = external global ptr, align 8

; Function Attrs: inlinehint nounwind uwtable
define internal void @pgstat_report_wait_end() #9 {
  %1 = load ptr, ptr @my_wait_event_info, align 8
  store volatile i32 0, ptr %1, align 4
  ret void
}

; Function Attrs: nounwind uwtable
define internal i32 @pg_ftruncate(i32 noundef %0, i64 noundef %1) #0 {
  %3 = alloca i32, align 4
  %4 = alloca i64, align 8
  %5 = alloca i32, align 4
  store i32 %0, ptr %3, align 4
  store i64 %1, ptr %4, align 8
  call void @llvm.lifetime.start.p0(i64 4, ptr %5) #14
  br label %6

6:                                                ; preds = %16, %2
  %7 = load i32, ptr %3, align 4
  %8 = load i64, ptr %4, align 8
  %9 = call i32 @ftruncate(i32 noundef %7, i64 noundef %8) #14
  store i32 %9, ptr %5, align 4
  %10 = load i32, ptr %5, align 4
  %11 = icmp eq i32 %10, -1
  br i1 %11, label %12, label %17

12:                                               ; preds = %6
  %13 = call ptr @__errno_location() #15
  %14 = load i32, ptr %13, align 4
  %15 = icmp eq i32 %14, 4
  br i1 %15, label %16, label %17

16:                                               ; preds = %12
  br label %6

17:                                               ; preds = %12, %6
  %18 = load i32, ptr %5, align 4
  call void @llvm.lifetime.end.p0(i64 4, ptr %5) #14
  ret i32 %18
}

; Function Attrs: inlinehint nounwind uwtable
define internal void @pgstat_report_wait_start(i32 noundef %0) #9 {
  %2 = alloca i32, align 4
  store i32 %0, ptr %2, align 4
  %3 = load i32, ptr %2, align 4
  %4 = load ptr, ptr @my_wait_event_info, align 8
  store volatile i32 %3, ptr %4, align 4
  ret void
}

; Function Attrs: nounwind uwtable
define dso_local i32 @FileTruncate(i32 noundef %0, i64 noundef %1, i32 noundef %2) #0 {
  %4 = alloca i32, align 4
  %5 = alloca i32, align 4
  %6 = alloca i64, align 8
  %7 = alloca i32, align 4
  %8 = alloca i32, align 4
  %9 = alloca i32, align 4
  store i32 %0, ptr %5, align 4
  store i64 %1, ptr %6, align 8
  store i32 %2, ptr %7, align 4
  call void @llvm.lifetime.start.p0(i64 4, ptr %8) #14
  %10 = load i32, ptr %5, align 4
  %11 = call i32 @FileAccess(i32 noundef %10)
  store i32 %11, ptr %8, align 4
  %12 = load i32, ptr %8, align 4
  %13 = icmp slt i32 %12, 0
  br i1 %13, label %14, label %16

14:                                               ; preds = %3
  %15 = load i32, ptr %8, align 4
  store i32 %15, ptr %4, align 4
  store i32 1, ptr %9, align 4
  br label %56

16:                                               ; preds = %3
  %17 = load i32, ptr %7, align 4
  call void @pgstat_report_wait_start(i32 noundef %17)
  %18 = load ptr, ptr @VfdCache, align 8
  %19 = load i32, ptr %5, align 4
  %20 = sext i32 %19 to i64
  %21 = getelementptr inbounds %struct.vfd, ptr %18, i64 %20
  %22 = getelementptr inbounds nuw %struct.vfd, ptr %21, i32 0, i32 0
  %23 = load i32, ptr %22, align 8
  %24 = load i64, ptr %6, align 8
  %25 = call i32 @pg_ftruncate(i32 noundef %23, i64 noundef %24)
  store i32 %25, ptr %8, align 4
  call void @pgstat_report_wait_end()
  %26 = load i32, ptr %8, align 4
  %27 = icmp eq i32 %26, 0
  br i1 %27, label %28, label %54

28:                                               ; preds = %16
  %29 = load ptr, ptr @VfdCache, align 8
  %30 = load i32, ptr %5, align 4
  %31 = sext i32 %30 to i64
  %32 = getelementptr inbounds %struct.vfd, ptr %29, i64 %31
  %33 = getelementptr inbounds nuw %struct.vfd, ptr %32, i32 0, i32 6
  %34 = load i64, ptr %33, align 8
  %35 = load i64, ptr %6, align 8
  %36 = icmp sgt i64 %34, %35
  br i1 %36, label %37, label %54

37:                                               ; preds = %28
  %38 = load ptr, ptr @VfdCache, align 8
  %39 = load i32, ptr %5, align 4
  %40 = sext i32 %39 to i64
  %41 = getelementptr inbounds %struct.vfd, ptr %38, i64 %40
  %42 = getelementptr inbounds nuw %struct.vfd, ptr %41, i32 0, i32 6
  %43 = load i64, ptr %42, align 8
  %44 = load i64, ptr %6, align 8
  %45 = sub i64 %43, %44
  %46 = load i64, ptr @temporary_files_size, align 8
  %47 = sub i64 %46, %45
  store i64 %47, ptr @temporary_files_size, align 8
  %48 = load i64, ptr %6, align 8
  %49 = load ptr, ptr @VfdCache, align 8
  %50 = load i32, ptr %5, align 4
  %51 = sext i32 %50 to i64
  %52 = getelementptr inbounds %struct.vfd, ptr %49, i64 %51
  %53 = getelementptr inbounds nuw %struct.vfd, ptr %52, i32 0, i32 6
  store i64 %48, ptr %53, align 8
  br label %54

54:                                               ; preds = %37, %28, %16
  %55 = load i32, ptr %8, align 4
  store i32 %55, ptr %4, align 4
  store i32 1, ptr %9, align 4
  br label %56

56:                                               ; preds = %54, %14
  call void @llvm.lifetime.end.p0(i64 4, ptr %8) #14
  %57 = load i32, ptr %4, align 4
  ret i32 %57
}