; Function Attrs: nounwind uwtable
define dso_local i32 @FileTruncate(i32 noundef %0, i64 noundef %1, i32 noundef %2) local_unnamed_addr #0 {
  %4 = tail call fastcc i32 @FileAccess(i32 noundef %0)
  %5 = icmp slt i32 %4, 0
  br i1 %5, label %30, label %6

6:                                                ; preds = %3
  %7 = load ptr, ptr @my_wait_event_info, align 8
  store volatile i32 %2, ptr %7, align 4
  %8 = load ptr, ptr @VfdCache, align 8
  %9 = sext i32 %0 to i64
  %10 = getelementptr inbounds %struct.vfd, ptr %8, i64 %9
  %11 = load i32, ptr %10, align 8
  br label %12

12:                                               ; preds = %15, %6
  %13 = tail call i32 @ftruncate(i32 noundef %11, i64 noundef %1) #25
  %14 = icmp eq i32 %13, -1
  br i1 %14, label %15, label %pg_ftruncate.exit

15:                                               ; preds = %12
  %16 = tail call ptr @__errno_location() #26
  %17 = load i32, ptr %16, align 4
  %18 = icmp eq i32 %17, 4
  br i1 %18, label %12, label %pg_ftruncate.exit.thread

pg_ftruncate.exit.thread:                         ; preds = %15
  %19 = load ptr, ptr @my_wait_event_info, align 8
  store volatile i32 0, ptr %19, align 4
  br label %30

pg_ftruncate.exit:                                ; preds = %12
  %20 = load ptr, ptr @my_wait_event_info, align 8
  store volatile i32 0, ptr %20, align 4
  %21 = icmp eq i32 %13, 0
  br i1 %21, label %22, label %30

22:                                               ; preds = %pg_ftruncate.exit
  %23 = load ptr, ptr @VfdCache, align 8
  %24 = getelementptr inbounds %struct.vfd, ptr %23, i64 %9, i32 6
  %25 = load i64, ptr %24, align 8
  %26 = icmp sgt i64 %25, %1
  br i1 %26, label %27, label %30

27:                                               ; preds = %22
  %.neg = sub i64 %1, %25
  %28 = load i64, ptr @temporary_files_size, align 8
  %29 = add i64 %.neg, %28
  store i64 %29, ptr @temporary_files_size, align 8
  store i64 %1, ptr %24, align 8
  br label %30

30:                                               ; preds = %pg_ftruncate.exit.thread, %pg_ftruncate.exit, %22, %27, %3
  %.0 = phi i32 [ -1, %3 ], [ 0, %27 ], [ 0, %22 ], [ %13, %pg_ftruncate.exit ], [ -1, %pg_ftruncate.exit.thread ]
  ret i32 %.0
}